target datalayout = "e-m:e-p270:32:32-p271:32:32-p272:64:64-i64:64-i128:128-f80:128-n8:16:32:64-S128"
target triple = "x86_64-unknown-linux-gnu"

%struct.redisCommand = type { ptr, ptr, ptr, ptr, i32, ptr, ptr, i32, ptr, i32, ptr, i32, ptr, i32, i64, i64, ptr, i32, ptr, i32, ptr, ptr, i64, i64, i64, i64, i32, ptr, ptr, %struct.keySpec, ptr, ptr, ptr }
%struct.keySpec = type { ptr, i64, i32, %union.anon, i32, %union.anon.2 }
%union.anon = type { %struct.anon.1 }
%struct.anon.1 = type { ptr, i32 }
%union.anon.2 = type { %struct.anon.3 }
%struct.anon.3 = type { i32, i32, i32 }
%struct.listNode = type { ptr, ptr, ptr }
%struct.client = type { i64, i64, ptr, i32, ptr, ptr, ptr, ptr, ptr, i64, i64, i32, ptr, i32, i32, ptr, i64, ptr, ptr, ptr, ptr, i32, i32, i64, ptr, i64, ptr, i64, i64, i64, i32, ptr, i64, i64, i32, i32, i32, i32, i64, i64, ptr, i64, i64, i64, i64, i64, i64, i64, i64, [41 x i8], i32, ptr, i32, i32, %struct.multiState, %struct.blockingState, i64, ptr, ptr, ptr, ptr, ptr, ptr, ptr, ptr, ptr, ptr, ptr, ptr, ptr, ptr, i64, ptr, i64, i32, ptr, ptr, ptr, i64, %struct.listNode, i64, i64, i32, i64, ptr }
%struct.multiState = type { ptr, i32, i32, i32, i64, i32 }
%struct.blockingState = type { i32, i64, i32, ptr, i32, i32, i64, ptr, ptr }

@.str.175 = private unnamed_addr constant [43 x i8] c"wrong number of arguments for '%s' command\00", align 1

; Function Attrs: nounwind uwtable
define dso_local i32 @commandCheckArity(ptr noundef %c, ptr noundef %err) #0 {
entry:
  %retval = alloca i32, align 4
  %c.addr = alloca ptr, align 8
  %err.addr = alloca ptr, align 8
  store ptr %c, ptr %c.addr, align 8
  store ptr %err, ptr %err.addr, align 8
  %0 = load ptr, ptr %c.addr, align 8
  %cmd = getelementptr inbounds %struct.client, ptr %0, i32 0, i32 17
  %1 = load ptr, ptr %cmd, align 8
  %arity = getelementptr inbounds %struct.redisCommand, ptr %1, i32 0, i32 13
  %2 = load i32, ptr %arity, align 8
  %cmp = icmp sgt i32 %2, 0
  br i1 %cmp, label %land.lhs.true, label %lor.lhs.false

land.lhs.true:                                    ; preds = %entry
  %3 = load ptr, ptr %c.addr, align 8
  %cmd1 = getelementptr inbounds %struct.client, ptr %3, i32 0, i32 17
  %4 = load ptr, ptr %cmd1, align 8
  %arity2 = getelementptr inbounds %struct.redisCommand, ptr %4, i32 0, i32 13
  %5 = load i32, ptr %arity2, align 8
  %6 = load ptr, ptr %c.addr, align 8
  %argc = getelementptr inbounds %struct.client, ptr %6, i32 0, i32 11
  %7 = load i32, ptr %argc, align 8
  %cmp3 = icmp ne i32 %5, %7
  br i1 %cmp3, label %if.then, label %lor.lhs.false

lor.lhs.false:                                    ; preds = %land.lhs.true, %entry
  %8 = load ptr, ptr %c.addr, align 8
  %argc4 = getelementptr inbounds %struct.client, ptr %8, i32 0, i32 11
  %9 = load i32, ptr %argc4, align 8
  %10 = load ptr, ptr %c.addr, align 8
  %cmd5 = getelementptr inbounds %struct.client, ptr %10, i32 0, i32 17
  %11 = load ptr, ptr %cmd5, align 8
  %arity6 = getelementptr inbounds %struct.redisCommand, ptr %11, i32 0, i32 13
  %12 = load i32, ptr %arity6, align 8
  %sub = sub nsw i32 0, %12
  %cmp7 = icmp slt i32 %9, %sub
  br i1 %cmp7, label %if.then, label %if.end11

if.then:                                          ; preds = %lor.lhs.false, %land.lhs.true
  %13 = load ptr, ptr %err.addr, align 8
  %tobool = icmp ne ptr %13, null
  br i1 %tobool, label %if.then8, label %if.end

if.then8:                                         ; preds = %if.then
  %call = call ptr @sdsnew(ptr noundef null)
  %14 = load ptr, ptr %err.addr, align 8
  store ptr %call, ptr %14, align 8
  %15 = load ptr, ptr %err.addr, align 8
  %16 = load ptr, ptr %15, align 8
  %17 = load ptr, ptr %c.addr, align 8
  %cmd9 = getelementptr inbounds %struct.client, ptr %17, i32 0, i32 17
  %18 = load ptr, ptr %cmd9, align 8
  %fullname = getelementptr inbounds %struct.redisCommand, ptr %18, i32 0, i32 27
  %19 = load ptr, ptr %fullname, align 8
  %call10 = call ptr (ptr, ptr, ...) @sdscatprintf(ptr noundef %16, ptr noundef @.str.175, ptr noundef %19)
  %20 = load ptr, ptr %err.addr, align 8
  store ptr %call10, ptr %20, align 8
  br label %if.end

if.end:                                           ; preds = %if.then8, %if.then
  store i32 0, ptr %retval, align 4
  br label %return

if.end11:                                         ; preds = %lor.lhs.false
  store i32 1, ptr %retval, align 4
  br label %return

return:                                           ; preds = %if.end11, %if.end
  %21 = load i32, ptr %retval, align 4
  ret i32 %21
}