; Function Attrs: nounwind uwtable
define dso_local noundef i32 @commandCheckArity(ptr nocapture noundef readonly %c, ptr noundef writeonly %err) local_unnamed_addr #0 {
entry:
  %cmd = getelementptr inbounds i8, ptr %c, i64 128
  %0 = load ptr, ptr %cmd, align 8
  %arity = getelementptr inbounds i8, ptr %0, i64 104
  %1 = load i32, ptr %arity, align 8
  %cmp = icmp sgt i32 %1, 0
  %argc = getelementptr inbounds i8, ptr %c, i64 88
  %2 = load i32, ptr %argc, align 8
  br i1 %cmp, label %land.lhs.true, label %lor.lhs.false

land.lhs.true:                                    ; preds = %entry
  %cmp3.not = icmp eq i32 %1, %2
  br i1 %cmp3.not, label %lor.lhs.false, label %if.then

lor.lhs.false:                                    ; preds = %entry, %land.lhs.true
  %3 = phi i32 [ %1, %land.lhs.true ], [ %2, %entry ]
  %sub = sub nsw i32 0, %1
  %cmp7 = icmp slt i32 %3, %sub
  br i1 %cmp7, label %if.then, label %return

if.then:                                          ; preds = %lor.lhs.false, %land.lhs.true
  %tobool.not = icmp eq ptr %err, null
  br i1 %tobool.not, label %return, label %if.then8

if.then8:                                         ; preds = %if.then
  %call = tail call ptr @sdsnew(ptr noundef null) #38
  store ptr %call, ptr %err, align 8
  %4 = load ptr, ptr %cmd, align 8
  %fullname = getelementptr inbounds i8, ptr %4, i64 216
  %5 = load ptr, ptr %fullname, align 8
  %call10 = tail call ptr (ptr, ptr, ...) @sdscatprintf(ptr noundef %call, ptr noundef nonnull @.str.175, ptr noundef %5) #38
  store ptr %call10, ptr %err, align 8
  br label %return

return:                                           ; preds = %lor.lhs.false, %if.then, %if.then8
  %retval.0 = phi i32 [ 0, %if.then8 ], [ 0, %if.then ], [ 1, %lor.lhs.false ]
  ret i32 %retval.0
}